target datalayout = "e-m:e-p270:32:32-p271:32:32-p272:64:64-i64:64-i128:128-f80:128-n8:16:32:64-S128"
target triple = "x86_64-pc-linux-gnu"

; Function Attrs: mustprogress nounwind uwtable
define noundef i32 @_ZN3net19FileErrorToNetErrorEN4base4File5ErrorE(i32 noundef %0) #3 {
  %2 = alloca i32, align 4
  %3 = alloca i32, align 4
  store i32 %0, ptr %3, align 4, !tbaa !14
  %4 = load i32, ptr %3, align 4, !tbaa !14
  switch i32 %4, label %9 [
    i32 0, label %5
    i32 -5, label %6
    i32 -15, label %7
    i32 -4, label %8
  ]

5:                                                ; preds = %1
  store i32 0, ptr %2, align 4
  br label %10

6:                                                ; preds = %1
  store i32 -10, ptr %2, align 4
  br label %10

7:                                                ; preds = %1
  store i32 -300, ptr %2, align 4
  br label %10

8:                                                ; preds = %1
  store i32 -6, ptr %2, align 4
  br label %10

9:                                                ; preds = %1
  store i32 -2, ptr %2, align 4
  br label %10

10:                                               ; preds = %9, %8, %7, %6, %5
  %11 = load i32, ptr %2, align 4
  ret i32 %11
}