; Function Attrs: mustprogress nofree norecurse nosync nounwind willreturn memory(none) uwtable
define noundef range(i32 -300, 1) i32 @_ZN3net19FileErrorToNetErrorEN4base4File5ErrorE(i32 noundef %0) local_unnamed_addr #2 {
  switch i32 %0, label %5 [
    i32 0, label %6
    i32 -5, label %2
    i32 -15, label %3
    i32 -4, label %4
  ]

2:                                                ; preds = %1
  br label %6

3:                                                ; preds = %1
  br label %6

4:                                                ; preds = %1
  br label %6

5:                                                ; preds = %1
  br label %6

6:                                                ; preds = %1, %5, %4, %3, %2
  %.0 = phi i32 [ -2, %5 ], [ -6, %4 ], [ -300, %3 ], [ -10, %2 ], [ %0, %1 ]
  ret i32 %.0
}